; ModuleID = '52/757.c'
source_filename = "52/757.c"
target datalayout = "e-m:e-p270:32:32-p271:32:32-p272:64:64-i64:64-f80:128-n8:16:32:64-S128"
target triple = "x86_64-pc-linux-gnu"

@.str = private unnamed_addr constant [5 x i8] c"%d%d\00", align 1
@.str.1 = private unnamed_addr constant [3 x i8] c"%d\00", align 1
@.str.2 = private unnamed_addr constant [4 x i8] c"%d \00", align 1
@.str.3 = private unnamed_addr constant [2 x i8] c"\0A\00", align 1

; Function Attrs: noinline nounwind uwtable
define dso_local i32 @main(i32 %0, i8** %1) #0 {
  %3 = alloca i32, align 4
  %4 = alloca i32, align 4
  %5 = alloca i8**, align 8
  %6 = alloca i32, align 4
  %7 = alloca i32, align 4
  %8 = alloca i32, align 4
  %9 = alloca i32, align 4
  %10 = alloca i32, align 4
  %11 = alloca i32*, align 8
  store i32 0, i32* %3, align 4
  store i32 %0, i32* %4, align 4
  store i8** %1, i8*** %5, align 8
  %12 = call i32 (i8*, ...) @__isoc99_scanf(i8* getelementptr inbounds ([5 x i8], [5 x i8]* @.str, i64 0, i64 0), i32* %7, i32* %6)
  %13 = load i32, i32* %7, align 4
  %14 = sext i32 %13 to i64
  %15 = mul i64 4, %14
  %16 = call noalias i8* @malloc(i64 %15) #3
  %17 = bitcast i8* %16 to i32*
  store i32* %17, i32** %11, align 8
  store i32 0, i32* %8, align 4
  br label %18

18:                                               ; preds = %28, %2
  %19 = load i32, i32* %8, align 4
  %20 = load i32, i32* %7, align 4
  %21 = icmp slt i32 %19, %20
  br i1 %21, label %22, label %31

22:                                               ; preds = %18
  %23 = load i32*, i32** %11, align 8
  %24 = load i32, i32* %8, align 4
  %25 = sext i32 %24 to i64
  %26 = getelementptr inbounds i32, i32* %23, i64 %25
  %27 = call i32 (i8*, ...) @__isoc99_scanf(i8* getelementptr inbounds ([3 x i8], [3 x i8]* @.str.1, i64 0, i64 0), i32* %26)
  br label %28

28:                                               ; preds = %22
  %29 = load i32, i32* %8, align 4
  %30 = add nsw i32 %29, 1
  store i32 %30, i32* %8, align 4
  br label %18

31:                                               ; preds = %18
  store i32 0, i32* %8, align 4
  br label %32

32:                                               ; preds = %65, %31
  %33 = load i32, i32* %8, align 4
  %34 = load i32, i32* %6, align 4
  %35 = icmp slt i32 %33, %34
  br i1 %35, label %36, label %68

36:                                               ; preds = %32
  %37 = load i32*, i32** %11, align 8
  %38 = load i32, i32* %7, align 4
  %39 = sext i32 %38 to i64
  %40 = getelementptr inbounds i32, i32* %37, i64 %39
  %41 = getelementptr inbounds i32, i32* %40, i64 -1
  %42 = load i32, i32* %41, align 4
  store i32 %42, i32* %10, align 4
  %43 = load i32, i32* %7, align 4
  %44 = sub nsw i32 %43, 1
  store i32 %44, i32* %9, align 4
  br label %45

45:                                               ; preds = %59, %36
  %46 = load i32, i32* %9, align 4
  %47 = icmp sge i32 %46, 1
  br i1 %47, label %48, label %62

48:                                               ; preds = %45
  %49 = load i32*, i32** %11, align 8
  %50 = load i32, i32* %9, align 4
  %51 = sext i32 %50 to i64
  %52 = getelementptr inbounds i32, i32* %49, i64 %51
  %53 = getelementptr inbounds i32, i32* %52, i64 -1
  %54 = load i32, i32* %53, align 4
  %55 = load i32*, i32** %11, align 8
  %56 = load i32, i32* %9, align 4
  %57 = sext i32 %56 to i64
  %58 = getelementptr inbounds i32, i32* %55, i64 %57
  store i32 %54, i32* %58, align 4
  br label %59

59:                                               ; preds = %48
  %60 = load i32, i32* %9, align 4
  %61 = add nsw i32 %60, -1
  store i32 %61, i32* %9, align 4
  br label %45

62:                                               ; preds = %45
  %63 = load i32, i32* %10, align 4
  %64 = load i32*, i32** %11, align 8
  store i32 %63, i32* %64, align 4
  br label %65

65:                                               ; preds = %62
  %66 = load i32, i32* %8, align 4
  %67 = add nsw i32 %66, 1
  store i32 %67, i32* %8, align 4
  br label %32

68:                                               ; preds = %32
  store i32 0, i32* %8, align 4
  br label %69

69:                                               ; preds = %81, %68
  %70 = load i32, i32* %8, align 4
  %71 = load i32, i32* %7, align 4
  %72 = sub nsw i32 %71, 1
  %73 = icmp slt i32 %70, %72
  br i1 %73, label %74, label %84

74:                                               ; preds = %69
  %75 = load i32*, i32** %11, align 8
  %76 = load i32, i32* %8, align 4
  %77 = sext i32 %76 to i64
  %78 = getelementptr inbounds i32, i32* %75, i64 %77
  %79 = load i32, i32* %78, align 4
  %80 = call i32 (i8*, ...) @printf(i8* getelementptr inbounds ([4 x i8], [4 x i8]* @.str.2, i64 0, i64 0), i32 %79)
  br label %81

81:                                               ; preds = %74
  %82 = load i32, i32* %8, align 4
  %83 = add nsw i32 %82, 1
  store i32 %83, i32* %8, align 4
  br label %69

84:                                               ; preds = %69
  %85 = load i32*, i32** %11, align 8
  %86 = load i32, i32* %7, align 4
  %87 = sext i32 %86 to i64
  %88 = getelementptr inbounds i32, i32* %85, i64 %87
  %89 = getelementptr inbounds i32, i32* %88, i64 -1
  %90 = load i32, i32* %89, align 4
  %91 = call i32 (i8*, ...) @printf(i8* getelementptr inbounds ([3 x i8], [3 x i8]* @.str.1, i64 0, i64 0), i32 %90)
  %92 = call i32 (i8*, ...) @printf(i8* getelementptr inbounds ([2 x i8], [2 x i8]* @.str.3, i64 0, i64 0))
  %93 = load i32*, i32** %11, align 8
  %94 = bitcast i32* %93 to i8*
  call void @free(i8* %94) #3
  ret i32 0
}

declare dso_local i32 @__isoc99_scanf(i8*, ...) #1

; Function Attrs: nounwind
declare dso_local noalias i8* @malloc(i64) #2

declare dso_local i32 @printf(i8*, ...) #1

; Function Attrs: nounwind
declare dso_local void @free(i8*) #2


!llvm.module.flags = !{!0}
!llvm.ident = !{!1}

!0 = !{i32 1, !"wchar_size", i32 4}
!1 = !{!"clang version 10.0.0-4ubuntu1 "}
